target datalayout = "e-m:e-p270:32:32-p271:32:32-p272:64:64-i64:64-i128:128-f80:128-n8:16:32:64-S128"
target triple = "x86_64-pc-linux-gnu"

%struct._object = type { i64, ptr }
%"class.nanobind::handle" = type { ptr }
%"struct.nanobind::detail::type_caster.450" = type { %"struct.nanobind::detail::type_caster_base.451" }
%"struct.nanobind::detail::type_caster_base.451" = type { ptr }
%"struct.nanobind::detail::tuple.456" = type { %"struct.nanobind::detail::type_caster.450" }
%"struct.nanobind::detail::type_caster.607" = type { %"struct.nanobind::detail::type_caster_base.608" }
%"struct.nanobind::detail::type_caster_base.608" = type { ptr }
%class.anon.675 = type { i8 }
%"struct.nanobind::detail::tuple.677" = type { %"struct.nanobind::detail::tuple.456", %"struct.nanobind::detail::type_caster.607" }

@_Py_NoneStruct = external global %struct._object, align 8

; Function Attrs: alwaysinline mustprogress nounwind optsize uwtable
define internal noundef nonnull align 8 dereferenceable(8) ptr @_ZN8nanobind6detail5tupleIJNS0_11type_casterISt6vectorIZL38nanobind_init_test_stl_bind_vector_extRNS_7module_EE2ElSaIS6_EEiEEEE3getILm0EEERDav(ptr noundef nonnull align 8 dereferenceable(8) %0) #5 align 2 {
  %2 = alloca ptr, align 8
  store ptr %0, ptr %2, align 8, !tbaa !719
  %3 = load ptr, ptr %2, align 8
  %4 = getelementptr inbounds nuw %"struct.nanobind::detail::tuple.456", ptr %3, i32 0, i32 0
  ret ptr %4
}

; Function Attrs: alwaysinline mustprogress nounwind optsize uwtable
define linkonce_odr hidden noundef ptr @_ZNK8nanobind6handle3ptrEv(ptr noundef nonnull align 8 dereferenceable(8) %0) #5 comdat align 2 {
  %2 = alloca ptr, align 8
  store ptr %0, ptr %2, align 8, !tbaa !12
  %3 = load ptr, ptr %2, align 8
  %4 = getelementptr inbounds nuw %"class.nanobind::handle", ptr %3, i32 0, i32 0
  %5 = load ptr, ptr %4, align 8, !tbaa !14
  ret ptr %5
}

; Function Attrs: inlinehint mustprogress nounwind optsize uwtable
define internal void @_ZL10_Py_INCREFP7_object(ptr noundef %0) #11 {
  %2 = alloca ptr, align 8
  store ptr %0, ptr %2, align 8, !tbaa !3
  %3 = load ptr, ptr %2, align 8, !tbaa !3
  %4 = getelementptr inbounds nuw %struct._object, ptr %3, i32 0, i32 0
  %5 = load i64, ptr %4, align 8, !tbaa !20
  %6 = add nsw i64 %5, 1
  store i64 %6, ptr %4, align 8, !tbaa !20
  ret void
}

; Function Attrs: inlinehint mustprogress optsize uwtable
define internal void @_ZZN8nanobind11bind_vectorISt6vectorIS1_IZL38nanobind_init_test_stl_bind_vector_extRNS_7module_EE2ElSaIS4_EESaIS6_EELNS_9rv_policyE1EJEEENS_6class_IT_JEEENS_6handleEPKcDpOT1_ENKUlRS8_RKS6_E_clESJ_SL_(ptr noundef nonnull align 1 dereferenceable(1) %0, ptr noundef nonnull align 8 dereferenceable(24) %1, ptr noundef nonnull align 8 dereferenceable(24) %2) #9 align 2 {
  %4 = alloca ptr, align 8
  %5 = alloca ptr, align 8
  %6 = alloca ptr, align 8
  store ptr %0, ptr %4, align 8, !tbaa !55
  store ptr %1, ptr %5, align 8, !tbaa !858
  store ptr %2, ptr %6, align 8, !tbaa !672
  %7 = load ptr, ptr %5, align 8, !tbaa !858
  %8 = load ptr, ptr %6, align 8, !tbaa !672
  call void @_ZNSt6vectorIS_IZL38nanobind_init_test_stl_bind_vector_extRN8nanobind7module_EE2ElSaIS3_EESaIS5_EE9push_backERKS5_(ptr noundef nonnull align 8 dereferenceable(24) %7, ptr noundef nonnull align 8 dereferenceable(24) %8) #20
  ret void
}

; Function Attrs: mustprogress optsize uwtable
define internal noundef nonnull align 8 dereferenceable(24) ptr @_ZN8nanobind6detail16type_caster_baseISt6vectorIZL38nanobind_init_test_stl_bind_vector_extRNS_7module_EE2ElSaIS5_EEEcvRS7_Ev(ptr noundef nonnull align 8 dereferenceable(8) %0) #0 align 2 {
  %2 = alloca ptr, align 8
  store ptr %0, ptr %2, align 8, !tbaa !711
  %3 = load ptr, ptr %2, align 8
  %4 = getelementptr inbounds nuw %"struct.nanobind::detail::type_caster_base.451", ptr %3, i32 0, i32 0
  %5 = load ptr, ptr %4, align 8, !tbaa !713
  call void @_ZN8nanobind6detail27raise_next_overload_if_nullEPv(ptr noundef %5) #20
  %6 = getelementptr inbounds nuw %"struct.nanobind::detail::type_caster_base.451", ptr %3, i32 0, i32 0
  %7 = load ptr, ptr %6, align 8, !tbaa !713
  ret ptr %7
}

; Function Attrs: mustprogress optsize uwtable
define internal noundef nonnull align 8 dereferenceable(24) ptr @_ZN8nanobind6detail16type_caster_baseISt6vectorIS2_IZL38nanobind_init_test_stl_bind_vector_extRNS_7module_EE2ElSaIS5_EESaIS7_EEEcvRS9_Ev(ptr noundef nonnull align 8 dereferenceable(8) %0) #0 align 2 {
  %2 = alloca ptr, align 8
  store ptr %0, ptr %2, align 8, !tbaa !895
  %3 = load ptr, ptr %2, align 8
  %4 = getelementptr inbounds nuw %"struct.nanobind::detail::type_caster_base.608", ptr %3, i32 0, i32 0
  %5 = load ptr, ptr %4, align 8, !tbaa !897
  call void @_ZN8nanobind6detail27raise_next_overload_if_nullEPv(ptr noundef %5) #20
  %6 = getelementptr inbounds nuw %"struct.nanobind::detail::type_caster_base.608", ptr %3, i32 0, i32 0
  %7 = load ptr, ptr %6, align 8, !tbaa !897
  ret ptr %7
}

; Function Attrs: alwaysinline mustprogress nounwind optsize uwtable
define internal noundef zeroext i1 @_ZN8nanobind6detail16type_caster_baseISt6vectorIZL38nanobind_init_test_stl_bind_vector_extRNS_7module_EE2ElSaIS5_EEE11from_pythonENS_6handleEhPNS0_12cleanup_listE(ptr noundef nonnull align 8 dereferenceable(8) %0, ptr %1, i8 noundef zeroext %2, ptr noundef %3) #5 align 2 {
  %5 = alloca %"class.nanobind::handle", align 8
  %6 = alloca ptr, align 8
  %7 = alloca i8, align 1
  %8 = alloca ptr, align 8
  %9 = getelementptr inbounds nuw %"class.nanobind::handle", ptr %5, i32 0, i32 0
  store ptr %1, ptr %9, align 8
  store ptr %0, ptr %6, align 8, !tbaa !711
  store i8 %2, ptr %7, align 1, !tbaa !44
  store ptr %3, ptr %8, align 8, !tbaa !155
  %10 = load ptr, ptr %6, align 8
  %11 = call noundef ptr @_ZNK8nanobind6handle3ptrEv(ptr noundef nonnull align 8 dereferenceable(8) %5) #20
  %12 = load i8, ptr %7, align 1, !tbaa !44
  %13 = load ptr, ptr %8, align 8, !tbaa !155
  %14 = getelementptr inbounds nuw %"struct.nanobind::detail::type_caster_base.451", ptr %10, i32 0, i32 0
  %15 = call noundef zeroext i1 @_ZN8nanobind6detail11nb_type_getEPKSt9type_infoP7_objecthPNS0_12cleanup_listEPPv(ptr noundef @_ZTISt6vectorIZL38nanobind_init_test_stl_bind_vector_extRN8nanobind7module_EE2ElSaIS3_EE, ptr noundef %11, i8 noundef zeroext %12, ptr noundef %13, ptr noundef %14) #22
  ret i1 %15
}

; Function Attrs: alwaysinline mustprogress nounwind optsize uwtable
define internal noundef nonnull align 8 dereferenceable(8) ptr @_ZN8nanobind6detail5tupleIJNS0_11type_casterISt6vectorIS3_IZL38nanobind_init_test_stl_bind_vector_extRNS_7module_EE2ElSaIS6_EESaIS8_EEiEENS2_IS8_iEEEE3getILm1EEERDav(ptr noundef nonnull align 8 dereferenceable(16) %0) #5 align 2 {
  %2 = alloca ptr, align 8
  store ptr %0, ptr %2, align 8, !tbaa !980
  %3 = load ptr, ptr %2, align 8
  %4 = call noundef nonnull align 8 dereferenceable(8) ptr @_ZN8nanobind6detail5tupleIJNS0_11type_casterISt6vectorIZL38nanobind_init_test_stl_bind_vector_extRNS_7module_EE2ElSaIS6_EEiEEEE3getILm0EEERDav(ptr noundef nonnull align 8 dereferenceable(8) %3) #20
  ret ptr %4
}

; Function Attrs: alwaysinline mustprogress nounwind optsize uwtable
define internal noundef zeroext i1 @_ZN8nanobind6detail16type_caster_baseISt6vectorIS2_IZL38nanobind_init_test_stl_bind_vector_extRNS_7module_EE2ElSaIS5_EESaIS7_EEE11from_pythonENS_6handleEhPNS0_12cleanup_listE(ptr noundef nonnull align 8 dereferenceable(8) %0, ptr %1, i8 noundef zeroext %2, ptr noundef %3) #5 align 2 {
  %5 = alloca %"class.nanobind::handle", align 8
  %6 = alloca ptr, align 8
  %7 = alloca i8, align 1
  %8 = alloca ptr, align 8
  %9 = getelementptr inbounds nuw %"class.nanobind::handle", ptr %5, i32 0, i32 0
  store ptr %1, ptr %9, align 8
  store ptr %0, ptr %6, align 8, !tbaa !895
  store i8 %2, ptr %7, align 1, !tbaa !44
  store ptr %3, ptr %8, align 8, !tbaa !155
  %10 = load ptr, ptr %6, align 8
  %11 = call noundef ptr @_ZNK8nanobind6handle3ptrEv(ptr noundef nonnull align 8 dereferenceable(8) %5) #20
  %12 = load i8, ptr %7, align 1, !tbaa !44
  %13 = load ptr, ptr %8, align 8, !tbaa !155
  %14 = getelementptr inbounds nuw %"struct.nanobind::detail::type_caster_base.608", ptr %10, i32 0, i32 0
  %15 = call noundef zeroext i1 @_ZN8nanobind6detail11nb_type_getEPKSt9type_infoP7_objecthPNS0_12cleanup_listEPPv(ptr noundef @_ZTISt6vectorIS_IZL38nanobind_init_test_stl_bind_vector_extRN8nanobind7module_EE2ElSaIS3_EESaIS5_EE, ptr noundef %11, i8 noundef zeroext %12, ptr noundef %13, ptr noundef %14) #22
  ret i1 %15
}

; Function Attrs: alwaysinline mustprogress nounwind optsize uwtable
define linkonce_odr hidden void @_ZN8nanobind6handleC2EPK7_object(ptr noundef nonnull align 8 dereferenceable(8) %0, ptr noundef %1) unnamed_addr #5 comdat align 2 {
  %3 = alloca ptr, align 8
  %4 = alloca ptr, align 8
  store ptr %0, ptr %3, align 8, !tbaa !12
  store ptr %1, ptr %4, align 8, !tbaa !3
  %5 = load ptr, ptr %3, align 8
  %6 = getelementptr inbounds nuw %"class.nanobind::handle", ptr %5, i32 0, i32 0
  %7 = load ptr, ptr %4, align 8, !tbaa !3
  store ptr %7, ptr %6, align 8, !tbaa !14
  ret void
}

; Function Attrs: alwaysinline mustprogress nounwind optsize uwtable
define internal noundef nonnull align 8 dereferenceable(8) ptr @_ZN8nanobind6detail5tupleIJNS0_11type_casterISt6vectorIS3_IZL38nanobind_init_test_stl_bind_vector_extRNS_7module_EE2ElSaIS6_EESaIS8_EEiEENS2_IS8_iEEEE3getILm0EEERDav(ptr noundef nonnull align 8 dereferenceable(16) %0) #5 align 2 {
  %2 = alloca ptr, align 8
  store ptr %0, ptr %2, align 8, !tbaa !980
  %3 = load ptr, ptr %2, align 8
  %4 = getelementptr inbounds nuw %"struct.nanobind::detail::tuple.677", ptr %3, i32 0, i32 1
  ret ptr %4
}

; Function Attrs: alwaysinline mustprogress optsize uwtable
define internal noundef ptr @_ZZN8nanobind6detail11func_createILb0ELb1EZNS_11bind_vectorISt6vectorIS3_IZL38nanobind_init_test_stl_bind_vector_extRNS_7module_EE2ElSaIS6_EESaIS8_EELNS_9rv_policyE1EJEEENS_6class_IT_JEEENS_6handleEPKcDpOT1_EUlRSA_RKS8_E_vJSL_SN_EJLm0ELm1EEJNS_5scopeENS_4nameENS_9is_methodEA37_cEEEP7_objectOT1_PFT2_DpT3_ESt16integer_sequenceImJXspT4_EEEDpRKT5_ENKUlPvPSU_PhSB_PNS0_12cleanup_listEE_clES18_S19_S1A_SB_S1C_(ptr noundef nonnull align 1 dereferenceable(1) %0, ptr noundef %1, ptr noundef %2, ptr noundef %3, i32 noundef %4, ptr noundef %5) #3 align 2 {
  %7 = alloca ptr, align 8
  %8 = alloca ptr, align 8
  %9 = alloca ptr, align 8
  %10 = alloca ptr, align 8
  %11 = alloca ptr, align 8
  %12 = alloca i32, align 4
  %13 = alloca ptr, align 8
  %14 = alloca ptr, align 8
  %15 = alloca %"struct.nanobind::detail::tuple.677", align 8
  %16 = alloca %"class.nanobind::handle", align 8
  %17 = alloca %"class.nanobind::handle", align 8
  %18 = alloca i32, align 4
  %19 = alloca ptr, align 8
  store ptr %0, ptr %8, align 8, !tbaa !55
  store ptr %1, ptr %9, align 8, !tbaa !55
  store ptr %2, ptr %10, align 8, !tbaa !153
  store ptr %3, ptr %11, align 8, !tbaa !24
  store i32 %4, ptr %12, align 4, !tbaa !26
  store ptr %5, ptr %13, align 8, !tbaa !155
  call void @llvm.lifetime.start.p0(i64 8, ptr %14) #21
  %20 = load ptr, ptr %9, align 8, !tbaa !55
  store ptr %20, ptr %14, align 8, !tbaa !976
  call void @llvm.lifetime.start.p0(i64 16, ptr %15) #21
  %21 = call noundef nonnull align 8 dereferenceable(8) ptr @_ZN8nanobind6detail5tupleIJNS0_11type_casterISt6vectorIS3_IZL38nanobind_init_test_stl_bind_vector_extRNS_7module_EE2ElSaIS6_EESaIS8_EEiEENS2_IS8_iEEEE3getILm0EEERDav(ptr noundef nonnull align 8 dereferenceable(16) %15) #20
  %22 = load ptr, ptr %10, align 8, !tbaa !153
  %23 = getelementptr inbounds nuw ptr, ptr %22, i64 0
  %24 = load ptr, ptr %23, align 8, !tbaa !3
  call void @_ZN8nanobind6handleC2EPK7_object(ptr noundef nonnull align 8 dereferenceable(8) %16, ptr noundef %24) #20
  %25 = load ptr, ptr %11, align 8, !tbaa !24
  %26 = getelementptr inbounds nuw i8, ptr %25, i64 0
  %27 = load i8, ptr %26, align 1, !tbaa !44
  %28 = load ptr, ptr %13, align 8, !tbaa !155
  %29 = getelementptr inbounds nuw %"class.nanobind::handle", ptr %16, i32 0, i32 0
  %30 = load ptr, ptr %29, align 8
  %31 = call noundef zeroext i1 @_ZN8nanobind6detail16type_caster_baseISt6vectorIS2_IZL38nanobind_init_test_stl_bind_vector_extRNS_7module_EE2ElSaIS5_EESaIS7_EEE11from_pythonENS_6handleEhPNS0_12cleanup_listE(ptr noundef nonnull align 8 dereferenceable(8) %21, ptr %30, i8 noundef zeroext %27, ptr noundef %28) #22
  br i1 %31, label %32, label %44

32:                                               ; preds = %6
  %33 = call noundef nonnull align 8 dereferenceable(8) ptr @_ZN8nanobind6detail5tupleIJNS0_11type_casterISt6vectorIS3_IZL38nanobind_init_test_stl_bind_vector_extRNS_7module_EE2ElSaIS6_EESaIS8_EEiEENS2_IS8_iEEEE3getILm1EEERDav(ptr noundef nonnull align 8 dereferenceable(16) %15) #20
  %34 = load ptr, ptr %10, align 8, !tbaa !153
  %35 = getelementptr inbounds nuw ptr, ptr %34, i64 1
  %36 = load ptr, ptr %35, align 8, !tbaa !3
  call void @_ZN8nanobind6handleC2EPK7_object(ptr noundef nonnull align 8 dereferenceable(8) %17, ptr noundef %36) #20
  %37 = load ptr, ptr %11, align 8, !tbaa !24
  %38 = getelementptr inbounds nuw i8, ptr %37, i64 1
  %39 = load i8, ptr %38, align 1, !tbaa !44
  %40 = load ptr, ptr %13, align 8, !tbaa !155
  %41 = getelementptr inbounds nuw %"class.nanobind::handle", ptr %17, i32 0, i32 0
  %42 = load ptr, ptr %41, align 8
  %43 = call noundef zeroext i1 @_ZN8nanobind6detail16type_caster_baseISt6vectorIZL38nanobind_init_test_stl_bind_vector_extRNS_7module_EE2ElSaIS5_EEE11from_pythonENS_6handleEhPNS0_12cleanup_listE(ptr noundef nonnull align 8 dereferenceable(8) %33, ptr %42, i8 noundef zeroext %39, ptr noundef %40) #22
  br i1 %43, label %45, label %44

44:                                               ; preds = %32, %6
  store ptr inttoptr (i64 1 to ptr), ptr %7, align 8
  store i32 1, ptr %18, align 4
  br label %53

45:                                               ; preds = %32
  call void @llvm.lifetime.start.p0(i64 8, ptr %19) #21
  %46 = load ptr, ptr %14, align 8, !tbaa !976
  %47 = call noundef nonnull align 8 dereferenceable(8) ptr @_ZN8nanobind6detail5tupleIJNS0_11type_casterISt6vectorIS3_IZL38nanobind_init_test_stl_bind_vector_extRNS_7module_EE2ElSaIS6_EESaIS8_EEiEENS2_IS8_iEEEE3getILm0EEERDav(ptr noundef nonnull align 8 dereferenceable(16) %15) #20
  %48 = call noundef nonnull align 8 dereferenceable(24) ptr @_ZN8nanobind6detail16type_caster_baseISt6vectorIS2_IZL38nanobind_init_test_stl_bind_vector_extRNS_7module_EE2ElSaIS5_EESaIS7_EEEcvRS9_Ev(ptr noundef nonnull align 8 dereferenceable(8) %47) #20
  %49 = call noundef nonnull align 8 dereferenceable(8) ptr @_ZN8nanobind6detail5tupleIJNS0_11type_casterISt6vectorIS3_IZL38nanobind_init_test_stl_bind_vector_extRNS_7module_EE2ElSaIS6_EESaIS8_EEiEENS2_IS8_iEEEE3getILm1EEERDav(ptr noundef nonnull align 8 dereferenceable(16) %15) #20
  %50 = call noundef nonnull align 8 dereferenceable(24) ptr @_ZN8nanobind6detail16type_caster_baseISt6vectorIZL38nanobind_init_test_stl_bind_vector_extRNS_7module_EE2ElSaIS5_EEEcvRS7_Ev(ptr noundef nonnull align 8 dereferenceable(8) %49) #20
  call void @_ZZN8nanobind11bind_vectorISt6vectorIS1_IZL38nanobind_init_test_stl_bind_vector_extRNS_7module_EE2ElSaIS4_EESaIS6_EELNS_9rv_policyE1EJEEENS_6class_IT_JEEENS_6handleEPKcDpOT1_ENKUlRS8_RKS6_E_clESJ_SL_(ptr noundef nonnull align 1 dereferenceable(1) %46, ptr noundef nonnull align 8 dereferenceable(24) %48, ptr noundef nonnull align 8 dereferenceable(24) %50) #20
  store ptr @_Py_NoneStruct, ptr %19, align 8, !tbaa !3
  %51 = load ptr, ptr %19, align 8, !tbaa !3
  call void @_ZL10_Py_INCREFP7_object(ptr noundef %51) #20
  %52 = load ptr, ptr %19, align 8, !tbaa !3
  store ptr %52, ptr %7, align 8
  store i32 1, ptr %18, align 4
  call void @llvm.lifetime.end.p0(i64 8, ptr %19) #21
  br label %53

53:                                               ; preds = %45, %44
  call void @llvm.lifetime.end.p0(i64 16, ptr %15) #21
  call void @llvm.lifetime.end.p0(i64 8, ptr %14) #21
  %54 = load ptr, ptr %7, align 8
  ret ptr %54
}

; Function Attrs: inlinehint mustprogress optsize uwtable
define internal noundef ptr @_ZZN8nanobind6detail11func_createILb0ELb1EZNS_11bind_vectorISt6vectorIS3_IZL38nanobind_init_test_stl_bind_vector_extRNS_7module_EE2ElSaIS6_EESaIS8_EELNS_9rv_policyE1EJEEENS_6class_IT_JEEENS_6handleEPKcDpOT1_EUlRSA_RKS8_E_vJSL_SN_EJLm0ELm1EEJNS_5scopeENS_4nameENS_9is_methodEA37_cEEEP7_objectOT1_PFT2_DpT3_ESt16integer_sequenceImJXspT4_EEEDpRKT5_ENUlPvPSU_PhSB_PNS0_12cleanup_listEE_8__invokeES18_S19_S1A_SB_S1C_(ptr noundef %0, ptr noundef %1, ptr noundef %2, i32 noundef %3, ptr noundef %4) #9 align 2 {
  %6 = alloca ptr, align 8
  %7 = alloca ptr, align 8
  %8 = alloca ptr, align 8
  %9 = alloca i32, align 4
  %10 = alloca ptr, align 8
  %11 = alloca %class.anon.675, align 1
  store ptr %0, ptr %6, align 8, !tbaa !55
  store ptr %1, ptr %7, align 8, !tbaa !153
  store ptr %2, ptr %8, align 8, !tbaa !24
  store i32 %3, ptr %9, align 4, !tbaa !26
  store ptr %4, ptr %10, align 8, !tbaa !155
  %12 = load ptr, ptr %6, align 8, !tbaa !55
  %13 = load ptr, ptr %7, align 8, !tbaa !153
  %14 = load ptr, ptr %8, align 8, !tbaa !24
  %15 = load i32, ptr %9, align 4, !tbaa !26
  %16 = load ptr, ptr %10, align 8, !tbaa !155
  %17 = call noundef ptr @_ZZN8nanobind6detail11func_createILb0ELb1EZNS_11bind_vectorISt6vectorIS3_IZL38nanobind_init_test_stl_bind_vector_extRNS_7module_EE2ElSaIS6_EESaIS8_EELNS_9rv_policyE1EJEEENS_6class_IT_JEEENS_6handleEPKcDpOT1_EUlRSA_RKS8_E_vJSL_SN_EJLm0ELm1EEJNS_5scopeENS_4nameENS_9is_methodEA37_cEEEP7_objectOT1_PFT2_DpT3_ESt16integer_sequenceImJXspT4_EEEDpRKT5_ENKUlPvPSU_PhSB_PNS0_12cleanup_listEE_clES18_S19_S1A_SB_S1C_(ptr noundef nonnull align 1 dereferenceable(1) %11, ptr noundef %12, ptr noundef %13, ptr noundef %14, i32 noundef %15, ptr noundef %16) #20
  ret ptr %17
}